target datalayout = "e-m:e-p270:32:32-p271:32:32-p272:64:64-i64:64-i128:128-f80:128-n8:16:32:64-S128"
target triple = "x86_64-pc-linux-gnu"

%struct.nstime_t = type { i64, i32 }
%struct._packet_info = type { ptr, ptr, i32, i32, %struct.nstime_t, %struct.nstime_t, %struct.nstime_t, i8, ptr, ptr, ptr, ptr, %struct._address, %struct._address, %struct._address, %struct._address, %struct._address, %struct._address, i32, ptr, i8, [3 x i8], %struct.anon, i32, i32, i32, i32, ptr, i8, ptr, ptr, i16, i16, i32, i32, i16, i32, i32, ptr, ptr, ptr, i8, i8, i16, i16, i16, i32, i16, i16, ptr, ptr, ptr, ptr, ptr, i32, i32 }
%struct._address = type { i32, i32, ptr, ptr }
%struct.anon = type { i8, [3 x i8] }
%struct.ptp_frame_info = type { i8, %union.anon, ptr, %struct.nstime_t }
%union.anon = type { %struct.ptp_frame_info_pdelay }
%struct.ptp_frame_info_pdelay = type { i32, i32, i32, i8, %struct.nstime_t, i64, i32, i64, i32, %struct.nstime_t, %struct.nstime_t, double, i8, double, i8, double, i32 }
%struct.ptp_clock_info = type { ptr }

@ptp_analyze_messages_with_minor_version = internal global i8 0, align 1
@ptp_clocks = internal global ptr null, align 8
@.str.1202 = private unnamed_addr constant [29 x i8] c"%s:%u: failed assertion \22%s\22\00", align 1
@.str.1203 = private unnamed_addr constant [29 x i8] c"epan/dissectors/packet-ptp.c\00", align 1
@.str.1204 = private unnamed_addr constant [25 x i8] c"ptp_clocks != ((void*)0)\00", align 1
@.str.1205 = private unnamed_addr constant [20 x i8] c"ptp_minor % 16 == 0\00", align 1
@.str.1206 = private unnamed_addr constant [16 x i8] c"ptp_major <= 15\00", align 1
@.str.1207 = private unnamed_addr constant [21 x i8] c"majorsdoid % 16 == 0\00", align 1
@.str.1208 = private unnamed_addr constant [18 x i8] c"messagetype <= 15\00", align 1

; Function Attrs: null_pointer_is_valid sspstrong uwtable
define internal i64 @calculate_frame_key(i8 noundef zeroext %0, i8 noundef zeroext %1, i8 noundef zeroext %2, i8 noundef zeroext %3, i8 noundef zeroext %4, i8 noundef zeroext %5, i16 noundef zeroext %6, i16 noundef zeroext %7) #1 {
  %9 = alloca i8, align 1
  %10 = alloca i8, align 1
  %11 = alloca i8, align 1
  %12 = alloca i8, align 1
  %13 = alloca i8, align 1
  %14 = alloca i8, align 1
  %15 = alloca i16, align 2
  %16 = alloca i16, align 2
  %17 = alloca i64, align 8
  store i8 %0, ptr %9, align 1
  store i8 %1, ptr %10, align 1
  store i8 %2, ptr %11, align 1
  store i8 %3, ptr %12, align 1
  store i8 %4, ptr %13, align 1
  store i8 %5, ptr %14, align 1
  store i16 %6, ptr %15, align 2
  store i16 %7, ptr %16, align 2
  %18 = load i8, ptr @ptp_analyze_messages_with_minor_version, align 1, !range !6, !noundef !7
  %19 = trunc i8 %18 to i1
  br i1 %19, label %21, label %20

20:                                               ; preds = %8
  store i8 0, ptr %10, align 1
  br label %21

21:                                               ; preds = %20, %8
  %22 = load i8, ptr %10, align 1
  %23 = zext i8 %22 to i32
  %24 = srem i32 %23, 16
  %25 = icmp eq i32 %24, 0
  br i1 %25, label %26, label %27

26:                                               ; preds = %21
  br label %29

27:                                               ; preds = %21
  call void (ptr, ...) @proto_report_dissector_bug(ptr noundef @.str.1202, ptr noundef @.str.1203, i32 noundef 1919, ptr noundef @.str.1205) #11
  unreachable

28:                                               ; No predecessors!
  br label %29

29:                                               ; preds = %28, %26
  %30 = load i8, ptr %9, align 1
  %31 = zext i8 %30 to i32
  %32 = icmp sle i32 %31, 15
  br i1 %32, label %33, label %34

33:                                               ; preds = %29
  br label %36

34:                                               ; preds = %29
  call void (ptr, ...) @proto_report_dissector_bug(ptr noundef @.str.1202, ptr noundef @.str.1203, i32 noundef 1920, ptr noundef @.str.1206) #11
  unreachable

35:                                               ; No predecessors!
  br label %36

36:                                               ; preds = %35, %33
  %37 = load i8, ptr %11, align 1
  %38 = zext i8 %37 to i32
  %39 = srem i32 %38, 16
  %40 = icmp eq i32 %39, 0
  br i1 %40, label %41, label %42

41:                                               ; preds = %36
  br label %44

42:                                               ; preds = %36
  call void (ptr, ...) @proto_report_dissector_bug(ptr noundef @.str.1202, ptr noundef @.str.1203, i32 noundef 1921, ptr noundef @.str.1207) #11
  unreachable

43:                                               ; No predecessors!
  br label %44

44:                                               ; preds = %43, %41
  %45 = load i8, ptr %13, align 1
  %46 = zext i8 %45 to i32
  %47 = icmp sle i32 %46, 15
  br i1 %47, label %48, label %49

48:                                               ; preds = %44
  br label %51

49:                                               ; preds = %44
  call void (ptr, ...) @proto_report_dissector_bug(ptr noundef @.str.1202, ptr noundef @.str.1203, i32 noundef 1922, ptr noundef @.str.1208) #11
  unreachable

50:                                               ; No predecessors!
  br label %51

51:                                               ; preds = %50, %48
  call void @llvm.lifetime.start.p0(i64 8, ptr %17) #10
  %52 = load i8, ptr %10, align 1
  %53 = zext i8 %52 to i64
  %54 = shl i64 %53, 56
  %55 = load i8, ptr %9, align 1
  %56 = zext i8 %55 to i64
  %57 = shl i64 %56, 56
  %58 = or i64 %54, %57
  %59 = load i8, ptr %11, align 1
  %60 = zext i8 %59 to i64
  %61 = shl i64 %60, 48
  %62 = or i64 %58, %61
  %63 = load i8, ptr %13, align 1
  %64 = zext i8 %63 to i64
  %65 = shl i64 %64, 48
  %66 = or i64 %62, %65
  %67 = load i8, ptr %12, align 1
  %68 = zext i8 %67 to i64
  %69 = shl i64 %68, 40
  %70 = or i64 %66, %69
  %71 = load i8, ptr %14, align 1
  %72 = zext i8 %71 to i64
  %73 = shl i64 %72, 32
  %74 = or i64 %70, %73
  %75 = load i16, ptr %15, align 2
  %76 = zext i16 %75 to i64
  %77 = shl i64 %76, 16
  %78 = or i64 %74, %77
  %79 = load i16, ptr %16, align 2
  %80 = zext i16 %79 to i64
  %81 = or i64 %78, %80
  store i64 %81, ptr %17, align 8
  %82 = load i64, ptr %17, align 8
  call void @llvm.lifetime.end.p0(i64 8, ptr %17) #10
  ret i64 %82
}

; Function Attrs: null_pointer_is_valid sspstrong uwtable
define internal ptr @get_frame_info_and_opt_create(ptr noundef %0, i8 noundef zeroext %1, i8 noundef zeroext %2, i8 noundef zeroext %3, i8 noundef zeroext %4, i8 noundef zeroext %5, i8 noundef zeroext %6, i64 noundef %7, i16 noundef zeroext %8, i16 noundef zeroext %9, i1 noundef zeroext %10, double noundef %11) #1 {
  %13 = alloca ptr, align 8
  %14 = alloca i8, align 1
  %15 = alloca i8, align 1
  %16 = alloca i8, align 1
  %17 = alloca i8, align 1
  %18 = alloca i8, align 1
  %19 = alloca i8, align 1
  %20 = alloca i64, align 8
  %21 = alloca i16, align 2
  %22 = alloca i16, align 2
  %23 = alloca i8, align 1
  %24 = alloca double, align 8
  %25 = alloca ptr, align 8
  %26 = alloca ptr, align 8
  %27 = alloca i64, align 8
  %28 = alloca ptr, align 8
  %29 = alloca %struct.nstime_t, align 8
  %30 = alloca double, align 8
  %31 = alloca ptr, align 8
  store ptr %0, ptr %13, align 8
  store i8 %1, ptr %14, align 1
  store i8 %2, ptr %15, align 1
  store i8 %3, ptr %16, align 1
  store i8 %4, ptr %17, align 1
  store i8 %5, ptr %18, align 1
  store i8 %6, ptr %19, align 1
  store i64 %7, ptr %20, align 8
  store i16 %8, ptr %21, align 2
  store i16 %9, ptr %22, align 2
  %32 = zext i1 %10 to i8
  store i8 %32, ptr %23, align 1
  store double %11, ptr %24, align 8
  %33 = load ptr, ptr @ptp_clocks, align 8
  %34 = icmp ne ptr %33, null
  br i1 %34, label %35, label %36

35:                                               ; preds = %12
  br label %38

36:                                               ; preds = %12
  call void (ptr, ...) @proto_report_dissector_bug(ptr noundef @.str.1202, ptr noundef @.str.1203, i32 noundef 1931, ptr noundef @.str.1204) #11
  unreachable

37:                                               ; No predecessors!
  br label %38

38:                                               ; preds = %37, %35
  call void @llvm.lifetime.start.p0(i64 8, ptr %25) #10
  %39 = load ptr, ptr @ptp_clocks, align 8
  %40 = call ptr @wmem_map_lookup(ptr noundef %39, ptr noundef %20)
  store ptr %40, ptr %25, align 8
  %41 = load ptr, ptr %25, align 8
  %42 = icmp eq ptr %41, null
  br i1 %42, label %43, label %56

43:                                               ; preds = %38
  call void @llvm.lifetime.start.p0(i64 8, ptr %26) #10
  %44 = call ptr @wmem_file_scope()
  %45 = call noalias ptr @wmem_alloc(ptr noundef %44, i64 noundef 8) #12
  store ptr %45, ptr %26, align 8
  %46 = load i64, ptr %20, align 8
  %47 = load ptr, ptr %26, align 8
  store i64 %46, ptr %47, align 8
  %48 = call ptr @wmem_file_scope()
  %49 = call noalias ptr @wmem_alloc0(ptr noundef %48, i64 noundef 8) #12
  store ptr %49, ptr %25, align 8
  %50 = load ptr, ptr %25, align 8
  %51 = getelementptr inbounds nuw %struct.ptp_clock_info, ptr %50, i32 0, i32 0
  store ptr null, ptr %51, align 8
  %52 = load ptr, ptr @ptp_clocks, align 8
  %53 = load ptr, ptr %26, align 8
  %54 = load ptr, ptr %25, align 8
  %55 = call ptr @wmem_map_insert(ptr noundef %52, ptr noundef %53, ptr noundef %54)
  call void @llvm.lifetime.end.p0(i64 8, ptr %26) #10
  br label %56

56:                                               ; preds = %43, %38
  %57 = load ptr, ptr %25, align 8
  %58 = getelementptr inbounds nuw %struct.ptp_clock_info, ptr %57, i32 0, i32 0
  %59 = load ptr, ptr %58, align 8
  %60 = icmp eq ptr %59, null
  br i1 %60, label %61, label %66

61:                                               ; preds = %56
  %62 = call ptr @wmem_file_scope()
  %63 = call noalias ptr @wmem_map_new(ptr noundef %62, ptr noundef @g_int64_hash, ptr noundef @g_int64_equal)
  %64 = load ptr, ptr %25, align 8
  %65 = getelementptr inbounds nuw %struct.ptp_clock_info, ptr %64, i32 0, i32 0
  store ptr %63, ptr %65, align 8
  br label %66

66:                                               ; preds = %61, %56
  call void @llvm.lifetime.start.p0(i64 8, ptr %27) #10
  %67 = load i8, ptr %14, align 1
  %68 = load i8, ptr %15, align 1
  %69 = load i8, ptr %16, align 1
  %70 = load i8, ptr %17, align 1
  %71 = load i8, ptr %18, align 1
  %72 = load i8, ptr %19, align 1
  %73 = load i16, ptr %21, align 2
  %74 = load i16, ptr %22, align 2
  %75 = call i64 @calculate_frame_key(i8 noundef zeroext %67, i8 noundef zeroext %68, i8 noundef zeroext %69, i8 noundef zeroext %70, i8 noundef zeroext %71, i8 noundef zeroext %72, i16 noundef zeroext %73, i16 noundef zeroext %74)
  store i64 %75, ptr %27, align 8
  call void @llvm.lifetime.start.p0(i64 8, ptr %28) #10
  %76 = load ptr, ptr %25, align 8
  %77 = getelementptr inbounds nuw %struct.ptp_clock_info, ptr %76, i32 0, i32 0
  %78 = load ptr, ptr %77, align 8
  %79 = call ptr @wmem_map_lookup(ptr noundef %78, ptr noundef %27)
  store ptr %79, ptr %28, align 8
  %80 = load ptr, ptr %28, align 8
  %81 = icmp ne ptr %80, null
  br i1 %81, label %82, label %94

82:                                               ; preds = %66
  call void @llvm.lifetime.start.p0(i64 16, ptr %29) #10
  %83 = load ptr, ptr %13, align 8
  %84 = getelementptr inbounds nuw %struct._packet_info, ptr %83, i32 0, i32 4
  %85 = load ptr, ptr %28, align 8
  %86 = getelementptr inbounds nuw %struct.ptp_frame_info, ptr %85, i32 0, i32 3
  call void @nstime_delta(ptr noundef %29, ptr noundef %84, ptr noundef %86)
  call void @llvm.lifetime.start.p0(i64 8, ptr %30) #10
  %87 = call double @nstime_to_sec(ptr noundef %29)
  store double %87, ptr %30, align 8
  %88 = load double, ptr %30, align 8
  %89 = call double @llvm.fabs.f64(double %88)
  %90 = load double, ptr %24, align 8
  %91 = fcmp ogt double %89, %90
  br i1 %91, label %92, label %93

92:                                               ; preds = %82
  store ptr null, ptr %28, align 8
  br label %93

93:                                               ; preds = %92, %82
  call void @llvm.lifetime.end.p0(i64 8, ptr %30) #10
  call void @llvm.lifetime.end.p0(i64 16, ptr %29) #10
  br label %94

94:                                               ; preds = %93, %66
  %95 = load ptr, ptr %28, align 8
  %96 = icmp eq ptr %95, null
  br i1 %96, label %97, label %127

97:                                               ; preds = %94
  %98 = load i8, ptr %23, align 1, !range !6, !noundef !7
  %99 = trunc i8 %98 to i1
  br i1 %99, label %100, label %127

100:                                              ; preds = %97
  call void @llvm.lifetime.start.p0(i64 8, ptr %31) #10
  %101 = call ptr @wmem_file_scope()
  %102 = call noalias ptr @wmem_alloc(ptr noundef %101, i64 noundef 8) #12
  store ptr %102, ptr %31, align 8
  %103 = load i64, ptr %27, align 8
  %104 = load ptr, ptr %31, align 8
  store i64 %103, ptr %104, align 8
  %105 = call ptr @wmem_file_scope()
  %106 = call noalias ptr @wmem_alloc0(ptr noundef %105, i64 noundef 176) #12
  store ptr %106, ptr %28, align 8
  %107 = load ptr, ptr %28, align 8
  %108 = getelementptr inbounds nuw %struct.ptp_frame_info, ptr %107, i32 0, i32 2
  store ptr null, ptr %108, align 8
  %109 = load i8, ptr %18, align 1
  %110 = zext i8 %109 to i32
  %111 = icmp eq i32 %110, 2
  br i1 %111, label %112, label %116

112:                                              ; preds = %100
  %113 = load ptr, ptr %28, align 8
  %114 = getelementptr inbounds nuw %struct.ptp_frame_info, ptr %113, i32 0, i32 1
  %115 = getelementptr inbounds nuw %struct.ptp_frame_info_pdelay, ptr %114, i32 0, i32 14
  store i8 0, ptr %115, align 8
  br label %116

116:                                              ; preds = %112, %100
  %117 = load ptr, ptr %25, align 8
  %118 = getelementptr inbounds nuw %struct.ptp_clock_info, ptr %117, i32 0, i32 0
  %119 = load ptr, ptr %118, align 8
  %120 = load ptr, ptr %31, align 8
  %121 = load ptr, ptr %28, align 8
  %122 = call ptr @wmem_map_insert(ptr noundef %119, ptr noundef %120, ptr noundef %121)
  %123 = load ptr, ptr %28, align 8
  %124 = getelementptr inbounds nuw %struct.ptp_frame_info, ptr %123, i32 0, i32 3
  %125 = load ptr, ptr %13, align 8
  %126 = getelementptr inbounds nuw %struct._packet_info, ptr %125, i32 0, i32 4
  call void @nstime_copy(ptr noundef %124, ptr noundef %126)
  call void @llvm.lifetime.end.p0(i64 8, ptr %31) #10
  br label %127

127:                                              ; preds = %116, %97, %94
  %128 = load ptr, ptr %28, align 8
  call void @llvm.lifetime.end.p0(i64 8, ptr %28) #10
  call void @llvm.lifetime.end.p0(i64 8, ptr %27) #10
  call void @llvm.lifetime.end.p0(i64 8, ptr %25) #10
  ret ptr %128
}