; Function Attrs: null_pointer_is_valid sspstrong uwtable
define internal fastcc ptr @get_frame_info_and_opt_create(ptr noundef %0, i8 noundef zeroext range(i8 0, 16) %1, i8 noundef zeroext range(i8 0, -15) %2, i8 noundef zeroext range(i8 0, -15) %3, i8 noundef zeroext %4, i8 noundef zeroext range(i8 0, 3) %5, i8 noundef zeroext %6, i64 noundef %7, i16 noundef zeroext %8, i16 noundef zeroext %9, i1 noundef zeroext %10, double noundef %11) unnamed_addr #1 {
  %13 = alloca i64, align 8
  %14 = alloca i64, align 8
  %15 = alloca %struct.nstime_t, align 8
  store i64 %7, ptr %13, align 8
  %16 = load ptr, ptr @ptp_clocks, align 8
  %.not = icmp eq ptr %16, null
  br i1 %.not, label %17, label %18

17:                                               ; preds = %12
  tail call void (ptr, ...) @proto_report_dissector_bug(ptr noundef nonnull @.str.1202, ptr noundef nonnull @.str.1203, i32 noundef 1931, ptr noundef nonnull @.str.1204) #10
  unreachable

18:                                               ; preds = %12
  %19 = call ptr @wmem_map_lookup(ptr noundef nonnull %16, ptr noundef nonnull %13)
  %20 = icmp eq ptr %19, null
  br i1 %20, label %21, label %29

21:                                               ; preds = %18
  %22 = call ptr @wmem_file_scope()
  %23 = call noalias dereferenceable_or_null(8) ptr @wmem_alloc(ptr noundef %22, i64 noundef 8) #11
  %24 = load i64, ptr %13, align 8
  store i64 %24, ptr %23, align 8
  %25 = call ptr @wmem_file_scope()
  %26 = call noalias dereferenceable_or_null(8) ptr @wmem_alloc0(ptr noundef %25, i64 noundef 8) #11
  store ptr null, ptr %26, align 8
  %27 = load ptr, ptr @ptp_clocks, align 8
  %28 = call ptr @wmem_map_insert(ptr noundef %27, ptr noundef %23, ptr noundef %26)
  br label %29

29:                                               ; preds = %21, %18
  %.0 = phi ptr [ %26, %21 ], [ %19, %18 ]
  %30 = load ptr, ptr %.0, align 8
  %31 = icmp eq ptr %30, null
  br i1 %31, label %32, label %35

32:                                               ; preds = %29
  %33 = call ptr @wmem_file_scope()
  %34 = call noalias ptr @wmem_map_new(ptr noundef %33, ptr noundef nonnull @g_int64_hash, ptr noundef nonnull @g_int64_equal)
  store ptr %34, ptr %.0, align 8
  br label %35

35:                                               ; preds = %32, %29
  %36 = phi ptr [ %34, %32 ], [ %30, %29 ]
  call void @llvm.lifetime.start.p0(i64 8, ptr nonnull %14) #9
  %37 = load i8, ptr @ptp_analyze_messages_with_minor_version, align 1, !range !6, !noundef !7
  %38 = trunc nuw i8 %37 to i1
  %spec.select.i = select i1 %38, i8 %2, i8 0
  %39 = and i8 %spec.select.i, 15
  %40 = icmp eq i8 %39, 0
  br i1 %40, label %42, label %41

41:                                               ; preds = %35
  call void (ptr, ...) @proto_report_dissector_bug(ptr noundef nonnull @.str.1202, ptr noundef nonnull @.str.1203, i32 noundef 1919, ptr noundef nonnull @.str.1205) #10
  unreachable

42:                                               ; preds = %35
  %43 = and i8 %3, 15
  %44 = icmp eq i8 %43, 0
  br i1 %44, label %calculate_frame_key.exit, label %45

45:                                               ; preds = %42
  call void (ptr, ...) @proto_report_dissector_bug(ptr noundef nonnull @.str.1202, ptr noundef nonnull @.str.1203, i32 noundef 1921, ptr noundef nonnull @.str.1207) #10
  unreachable

calculate_frame_key.exit:                         ; preds = %42
  %46 = or disjoint i8 %spec.select.i, %1
  %47 = zext i8 %46 to i64
  %48 = shl nuw i64 %47, 56
  %49 = or disjoint i8 %5, %3
  %50 = zext i8 %49 to i64
  %51 = shl nuw nsw i64 %50, 48
  %52 = or disjoint i64 %48, %51
  %53 = zext i8 %4 to i64
  %54 = shl nuw nsw i64 %53, 40
  %55 = or disjoint i64 %52, %54
  %56 = zext i8 %6 to i64
  %57 = shl nuw nsw i64 %56, 32
  %58 = or disjoint i64 %55, %57
  %59 = zext i16 %8 to i64
  %60 = shl nuw nsw i64 %59, 16
  %61 = or disjoint i64 %58, %60
  %62 = zext i16 %9 to i64
  %63 = or disjoint i64 %61, %62
  store i64 %63, ptr %14, align 8
  %64 = call ptr @wmem_map_lookup(ptr noundef %36, ptr noundef nonnull %14)
  %.not37 = icmp eq ptr %64, null
  br i1 %.not37, label %71, label %65

65:                                               ; preds = %calculate_frame_key.exit
  call void @llvm.lifetime.start.p0(i64 16, ptr nonnull %15) #9
  %66 = getelementptr inbounds nuw i8, ptr %0, i64 24
  %67 = getelementptr inbounds nuw i8, ptr %64, i64 160
  call void @nstime_delta(ptr noundef nonnull %15, ptr noundef nonnull %66, ptr noundef nonnull %67)
  %68 = call double @nstime_to_sec(ptr noundef nonnull %15)
  %69 = call double @llvm.fabs.f64(double %68)
  %70 = fcmp ogt double %69, %11
  %.1 = select i1 %70, ptr null, ptr %64
  call void @llvm.lifetime.end.p0(i64 16, ptr nonnull %15) #9
  br label %71

71:                                               ; preds = %65, %calculate_frame_key.exit
  %.032 = phi ptr [ %.1, %65 ], [ null, %calculate_frame_key.exit ]
  %72 = icmp eq ptr %.032, null
  %brmerge.not = and i1 %10, %72
  br i1 %brmerge.not, label %73, label %88

73:                                               ; preds = %71
  %74 = call ptr @wmem_file_scope()
  %75 = call noalias dereferenceable_or_null(8) ptr @wmem_alloc(ptr noundef %74, i64 noundef 8) #11
  %76 = load i64, ptr %14, align 8
  store i64 %76, ptr %75, align 8
  %77 = call ptr @wmem_file_scope()
  %78 = call noalias dereferenceable_or_null(176) ptr @wmem_alloc0(ptr noundef %77, i64 noundef 176) #11
  %79 = getelementptr inbounds nuw i8, ptr %78, i64 152
  store ptr null, ptr %79, align 8
  %80 = icmp eq i8 %5, 2
  br i1 %80, label %81, label %83

81:                                               ; preds = %73
  %82 = getelementptr inbounds nuw i8, ptr %78, i64 128
  store i8 0, ptr %82, align 8
  br label %83

83:                                               ; preds = %81, %73
  %84 = load ptr, ptr %.0, align 8
  %85 = call ptr @wmem_map_insert(ptr noundef %84, ptr noundef %75, ptr noundef %78)
  %86 = getelementptr inbounds nuw i8, ptr %78, i64 160
  %87 = getelementptr inbounds nuw i8, ptr %0, i64 24
  call void @nstime_copy(ptr noundef nonnull %86, ptr noundef nonnull %87)
  br label %88

88:                                               ; preds = %71, %83
  %.2 = phi ptr [ %78, %83 ], [ %.032, %71 ]
  call void @llvm.lifetime.end.p0(i64 8, ptr nonnull %14) #9
  ret ptr %.2
}